; Function Attrs: nounwind uwtable
define ptr @l_Lean_MessageData_signature(ptr noundef %0) local_unnamed_addr #0 {
  tail call void @lean_inc_heartbeat() #6
  %2 = tail call noalias ptr @mi_malloc_small(i64 noundef 32) #6
  %3 = icmp eq ptr %2, null
  br i1 %3, label %4, label %lean_alloc_closure.exit

4:                                                ; preds = %1
  tail call void @lean_internal_panic_out_of_memory() #7
  unreachable

lean_alloc_closure.exit:                          ; preds = %1
  %5 = getelementptr inbounds nuw i8, ptr %2, i64 4
  store i32 1, ptr %2, align 4, !tbaa !4
  store i32 -184549344, ptr %5, align 4
  %6 = getelementptr inbounds nuw i8, ptr %2, i64 8
  store ptr @l_Lean_MessageData_signature___lambda__1, ptr %6, align 8, !tbaa !9
  %7 = getelementptr inbounds nuw i8, ptr %2, i64 16
  store i16 3, ptr %7, align 8, !tbaa !15
  %8 = getelementptr inbounds nuw i8, ptr %2, i64 18
  store i16 1, ptr %8, align 2, !tbaa !15
  %9 = getelementptr inbounds nuw i8, ptr %2, i64 24
  store ptr %0, ptr %9, align 8, !tbaa !9
  %10 = load ptr, ptr @l_Lean_MessageData_ofFormatWithInfosM___closed__1, align 8, !tbaa !9
  %11 = load ptr, ptr @l_Lean_MessageData_ofFormatWithInfosM___closed__2, align 8, !tbaa !9
  %12 = tail call ptr @l_Lean_MessageData_lazy(ptr noundef nonnull %2, ptr noundef %10, ptr noundef %11) #6
  ret ptr %12
}